((lp1
I1
aI2
aI3
aI4
aI5
aI6
aI7
aI8
aI9
a(lp2
F0.93969849246231152
aF0.94221105527638194
aF0.94346733668341709
aF0.92462311557788945
aF0.88819095477386933
aF0.83417085427135684
aF0.73994974874371855
aF0.64321608040201006
aF0.52386934673366836
atp3
.